target datalayout = "e-m:e-p270:32:32-p271:32:32-p272:64:64-i64:64-i128:128-f80:128-n8:16:32:64-S128"
target triple = "x86_64-pc-linux-gnu"

%struct.lua_State = type { i8, i8, i8, i8, i8, i8, i8, ptr, ptr, ptr, ptr, ptr, ptr, ptr, ptr, i32, i32, i16, i16, i32, ptr, ptr, ptr, ptr, ptr }
%struct.CallInfo = type { ptr, ptr, ptr, ptr, i32, i32 }

; Function Attrs: mustprogress nounwind uwtable
define hidden noundef i32 @_Z13luaG_isnativeP9lua_Statei(ptr noundef %0, i32 noundef %1) #2 {
  %3 = alloca i32, align 4
  %4 = alloca ptr, align 8
  %5 = alloca i32, align 4
  %6 = alloca ptr, align 8
  store ptr %0, ptr %4, align 8, !tbaa !4
  store i32 %1, ptr %5, align 4, !tbaa !9
  %7 = load i32, ptr %5, align 4, !tbaa !9
  %8 = load ptr, ptr %4, align 8, !tbaa !4
  %9 = getelementptr inbounds nuw %struct.lua_State, ptr %8, i32 0, i32 10
  %10 = load ptr, ptr %9, align 8, !tbaa !11
  %11 = load ptr, ptr %4, align 8, !tbaa !4
  %12 = getelementptr inbounds nuw %struct.lua_State, ptr %11, i32 0, i32 14
  %13 = load ptr, ptr %12, align 8, !tbaa !22
  %14 = ptrtoint ptr %10 to i64
  %15 = ptrtoint ptr %13 to i64
  %16 = sub i64 %14, %15
  %17 = sdiv exact i64 %16, 40
  %18 = trunc i64 %17 to i32
  %19 = icmp uge i32 %7, %18
  br i1 %19, label %20, label %21

20:                                               ; preds = %2
  store i32 0, ptr %3, align 4
  br label %35

21:                                               ; preds = %2
  call void @llvm.lifetime.start.p0(i64 8, ptr %6) #11
  %22 = load ptr, ptr %4, align 8, !tbaa !4
  %23 = getelementptr inbounds nuw %struct.lua_State, ptr %22, i32 0, i32 10
  %24 = load ptr, ptr %23, align 8, !tbaa !11
  %25 = load i32, ptr %5, align 4, !tbaa !9
  %26 = sext i32 %25 to i64
  %27 = sub i64 0, %26
  %28 = getelementptr inbounds %struct.CallInfo, ptr %24, i64 %27
  store ptr %28, ptr %6, align 8, !tbaa !23
  %29 = load ptr, ptr %6, align 8, !tbaa !23
  %30 = getelementptr inbounds nuw %struct.CallInfo, ptr %29, i32 0, i32 5
  %31 = load i32, ptr %30, align 4, !tbaa !24
  %32 = and i32 %31, 4
  %33 = icmp ne i32 %32, 0
  %34 = select i1 %33, i32 1, i32 0
  store i32 %34, ptr %3, align 4
  call void @llvm.lifetime.end.p0(i64 8, ptr %6) #11
  br label %35

35:                                               ; preds = %21, %20
  %36 = load i32, ptr %3, align 4
  ret i32 %36
}