; Function Attrs: mustprogress nofree norecurse nosync nounwind willreturn memory(read, inaccessiblemem: none) uwtable
define hidden noundef range(i32 0, 2) i32 @_Z13luaG_isnativeP9lua_Statei(ptr noundef readonly captures(none) %0, i32 noundef %1) local_unnamed_addr #9 {
  %3 = getelementptr inbounds nuw i8, ptr %0, i64 32
  %4 = load ptr, ptr %3, align 8, !tbaa !4
  %5 = getelementptr inbounds nuw i8, ptr %0, i64 64
  %6 = load ptr, ptr %5, align 8, !tbaa !19
  %7 = ptrtoint ptr %4 to i64
  %8 = ptrtoint ptr %6 to i64
  %9 = sub i64 %7, %8
  %10 = sdiv exact i64 %9, 40
  %11 = trunc i64 %10 to i32
  %.not = icmp ult i32 %1, %11
  br i1 %.not, label %12, label %18

12:                                               ; preds = %2
  %13 = sext i32 %1 to i64
  %14 = sub nsw i64 0, %13
  %15 = getelementptr inbounds %struct.CallInfo, ptr %4, i64 %14, i32 5
  %16 = load i32, ptr %15, align 4, !tbaa !20
  %17 = lshr i32 %16, 2
  %.lobit = and i32 %17, 1
  br label %18

18:                                               ; preds = %2, %12
  %.0 = phi i32 [ %.lobit, %12 ], [ 0, %2 ]
  ret i32 %.0
}